(dp0
S'MSICache'
p1
(dp2
I2
(dp3
S'R'
p4
(dp5
S'HIT'
p6
I34940
sS'HIT_PRIV'
p7
I0
sS'MISS'
p8
I6020
sS'TOTAL'
p9
I40960
ssS'W'
p10
(dp11
g6
I8192
sg7
I0
sg8
I0
sg9
I8192
ssS'INVALIDATES'
p12
I8192
sS'INVALIDATED'
p13
I6927
sS'WRITEUPDATES'
p14
I0
sS'WRITEUPDATED'
p15
I0
sS'WRITEBACK'
p16
I4196
ssI4
(dp17
g4
(dp18
g6
I37348
sg7
I0
sg8
I3612
sg9
I40960
ssg10
(dp19
g6
I8192
sg7
I0
sg8
I0
sg9
I8192
ssg12
I8192
sg13
I4253
sg14
I0
sg15
I0
sg16
I2609
ssI8
(dp20
g4
(dp21
g6
I38552
sg7
I0
sg8
I2408
sg9
I40960
ssg10
(dp22
g6
I8192
sg7
I0
sg8
I0
sg9
I8192
ssg12
I8192
sg13
I3014
sg14
I0
sg15
I0
sg16
I1915
ssI16
(dp23
g4
(dp24
g6
I39756
sg7
I0
sg8
I1204
sg9
I40960
ssg10
(dp25
g6
I8192
sg7
I0
sg8
I0
sg9
I8192
ssg12
I8192
sg13
I1795
sg14
I0
sg15
I0
sg16
I1234
sssS'MESICache'
p26
(dp27
I2
(dp28
g4
(dp29
g6
I34940
sg7
I0
sg8
I6020
sg9
I40960
ssg10
(dp30
g6
I8192
sg7
I0
sg8
I0
sg9
I8192
ssg12
I8192
sg13
I6927
sg14
I0
sg15
I0
sg16
I3443
ssI4
(dp31
g4
(dp32
g6
I37348
sg7
I0
sg8
I3612
sg9
I40960
ssg10
(dp33
g6
I8192
sg7
I0
sg8
I0
sg9
I8192
ssg12
I8192
sg13
I4253
sg14
I0
sg15
I0
sg16
I2145
ssI8
(dp34
g4
(dp35
g6
I38552
sg7
I0
sg8
I2408
sg9
I40960
ssg10
(dp36
g6
I8192
sg7
I0
sg8
I0
sg9
I8192
ssg12
I8192
sg13
I3014
sg14
I0
sg15
I0
sg16
I1589
ssI16
(dp37
g4
(dp38
g6
I39756
sg7
I0
sg8
I1204
sg9
I40960
ssg10
(dp39
g6
I8192
sg7
I0
sg8
I0
sg9
I8192
ssg12
I8192
sg13
I1795
sg14
I0
sg15
I0
sg16
I1045
sssS'MESCache'
p40
(dp41
I2
(dp42
g4
(dp43
g6
I34285
sg7
I0
sg8
I6675
sg9
I40960
ssg10
(dp44
g6
I8192
sg7
I0
sg8
I0
sg9
I8192
ssg12
I0
sg13
I0
sg14
I5510
sg15
I11084
sg16
I6862
ssI4
(dp45
g4
(dp46
g6
I36879
sg7
I0
sg8
I4081
sg9
I40960
ssg10
(dp47
g6
I8192
sg7
I0
sg8
I0
sg9
I8192
ssg12
I0
sg13
I0
sg14
I5606
sg15
I11407
sg16
I6416
ssI8
(dp48
g4
(dp49
g6
I38079
sg7
I0
sg8
I2881
sg9
I40960
ssg10
(dp50
g6
I8192
sg7
I0
sg8
I0
sg9
I8192
ssg12
I0
sg13
I0
sg14
I5848
sg15
I12088
sg16
I6390
ssI16
(dp51
g4
(dp52
g6
I39256
sg7
I0
sg8
I1704
sg9
I40960
ssg10
(dp53
g6
I8192
sg7
I0
sg8
I0
sg9
I8192
ssg12
I0
sg13
I0
sg14
I6076
sg15
I12783
sg16
I6343
sss.