(dp0
S'MSICache'
p1
(dp2
I2
(dp3
S'R'
p4
(dp5
S'HIT'
p6
I32070
sS'HIT_PRIV'
p7
I12661
sS'MISS'
p8
I8890
sS'TOTAL'
p9
I40960
ssS'W'
p10
(dp11
g6
I8192
sg7
I3996
sg8
I0
sg9
I8192
ssS'INVALIDATES'
p12
I8192
sS'INVALIDATED'
p13
I6927
sS'WRITEUPDATES'
p14
I0
sS'WRITEUPDATED'
p15
I0
sS'WRITEBACK'
p16
I4196
ssI4
(dp17
g4
(dp18
g6
I35529
sg7
I17540
sg8
I5431
sg9
I40960
ssg10
(dp19
g6
I8192
sg7
I5583
sg8
I0
sg9
I8192
ssg12
I8192
sg13
I4253
sg14
I0
sg15
I0
sg16
I2609
ssI8
(dp20
g4
(dp21
g6
I37159
sg7
I19662
sg8
I3801
sg9
I40960
ssg10
(dp22
g6
I8192
sg7
I6277
sg8
I0
sg9
I8192
ssg12
I8192
sg13
I3014
sg14
I0
sg15
I0
sg16
I1915
ssI16
(dp23
g4
(dp24
g6
I38771
sg7
I21766
sg8
I2189
sg9
I40960
ssg10
(dp25
g6
I8192
sg7
I6958
sg8
I0
sg9
I8192
ssg12
I8192
sg13
I1795
sg14
I0
sg15
I0
sg16
I1234
sssS'MESICache'
p26
(dp27
I2
(dp28
g4
(dp29
g6
I32070
sg7
I12957
sg8
I8890
sg9
I40960
ssg10
(dp30
g6
I8192
sg7
I4091
sg8
I0
sg9
I8192
ssg12
I8192
sg13
I6927
sg14
I0
sg15
I0
sg16
I4101
ssI4
(dp31
g4
(dp32
g6
I35529
sg7
I17782
sg8
I5431
sg9
I40960
ssg10
(dp33
g6
I8192
sg7
I5640
sg8
I0
sg9
I8192
ssg12
I8192
sg13
I4253
sg14
I0
sg15
I0
sg16
I2552
ssI8
(dp34
g4
(dp35
g6
I37159
sg7
I19876
sg8
I3801
sg9
I40960
ssg10
(dp36
g6
I8192
sg7
I6315
sg8
I0
sg9
I8192
ssg12
I8192
sg13
I3014
sg14
I0
sg15
I0
sg16
I1877
ssI16
(dp37
g4
(dp38
g6
I38771
sg7
I21952
sg8
I2189
sg9
I40960
ssg10
(dp39
g6
I8192
sg7
I6977
sg8
I0
sg9
I8192
ssg12
I8192
sg13
I1795
sg14
I0
sg15
I0
sg16
I1215
sssS'MESCache'
p40
(dp41
I2
(dp42
g4
(dp43
g6
I32132
sg7
I574
sg8
I8828
sg9
I40960
ssg10
(dp44
g6
I8192
sg7
I187
sg8
I0
sg9
I8192
ssg12
I0
sg13
I0
sg14
I8005
sg15
I24483
sg16
I8565
ssI4
(dp45
g4
(dp46
g6
I35566
sg7
I632
sg8
I5394
sg9
I40960
ssg10
(dp47
g6
I8192
sg7
I187
sg8
I0
sg9
I8192
ssg12
I0
sg13
I0
sg14
I8005
sg15
I24485
sg16
I8639
ssI8
(dp48
g4
(dp49
g6
I37183
sg7
I661
sg8
I3777
sg9
I40960
ssg10
(dp50
g6
I8192
sg7
I187
sg8
I0
sg9
I8192
ssg12
I0
sg13
I0
sg14
I8005
sg15
I24485
sg16
I8677
ssI16
(dp51
g4
(dp52
g6
I38783
sg7
I690
sg8
I2177
sg9
I40960
ssg10
(dp53
g6
I8192
sg7
I187
sg8
I0
sg9
I8192
ssg12
I0
sg13
I0
sg14
I8005
sg15
I24487
sg16
I8715
sss.