(dp0
S'MSICache'
p1
(dp2
I2
(dp3
S'R'
p4
(dp5
S'HIT'
p6
I104566
sS'HIT_PRIV'
p7
I0
sS'MISS'
p8
I13407
sS'TOTAL'
p9
I117973
ssS'W'
p10
(dp11
g6
I14110
sg7
I0
sg8
I6472
sg9
I20582
ssS'INVALIDATES'
p12
I20582
sS'INVALIDATED'
p13
I20173
sS'WRITEUPDATES'
p14
I0
sS'WRITEUPDATED'
p15
I0
sS'WRITEBACK'
p16
I14638
ssI4
(dp17
g4
(dp18
g6
I102960
sg7
I0
sg8
I15013
sg9
I117973
ssg10
(dp19
g6
I13369
sg7
I0
sg8
I7213
sg9
I20582
ssg12
I20582
sg13
I23373
sg14
I0
sg15
I0
sg16
I15426
ssI8
(dp20
g4
(dp21
g6
I101346
sg7
I0
sg8
I16627
sg9
I117973
ssg10
(dp22
g6
I12551
sg7
I0
sg8
I8031
sg9
I20582
ssg12
I20582
sg13
I25161
sg14
I0
sg15
I0
sg16
I16119
ssI16
(dp23
g4
(dp24
g6
I100869
sg7
I0
sg8
I17104
sg9
I117973
ssg10
(dp25
g6
I11329
sg7
I0
sg8
I9253
sg9
I20582
ssg12
I20582
sg13
I27237
sg14
I0
sg15
I0
sg16
I16902
sssS'MESICache'
p26
(dp27
I2
(dp28
g4
(dp29
g6
I104566
sg7
I0
sg8
I13407
sg9
I117973
ssg10
(dp30
g6
I14110
sg7
I0
sg8
I6472
sg9
I20582
ssg12
I20582
sg13
I20173
sg14
I0
sg15
I0
sg16
I14388
ssI4
(dp31
g4
(dp32
g6
I102960
sg7
I0
sg8
I15013
sg9
I117973
ssg10
(dp33
g6
I13369
sg7
I0
sg8
I7213
sg9
I20582
ssg12
I20582
sg13
I23373
sg14
I0
sg15
I0
sg16
I15055
ssI8
(dp34
g4
(dp35
g6
I101346
sg7
I0
sg8
I16627
sg9
I117973
ssg10
(dp36
g6
I12551
sg7
I0
sg8
I8031
sg9
I20582
ssg12
I20582
sg13
I25161
sg14
I0
sg15
I0
sg16
I15580
ssI16
(dp37
g4
(dp38
g6
I100869
sg7
I0
sg8
I17104
sg9
I117973
ssg10
(dp39
g6
I11329
sg7
I0
sg8
I9253
sg9
I20582
ssg12
I20582
sg13
I27237
sg14
I0
sg15
I0
sg16
I16312
sssS'MESCache'
p40
(dp41
I2
(dp42
g4
(dp43
g6
I97014
sg7
I0
sg8
I20959
sg9
I117973
ssg10
(dp44
g6
I11532
sg7
I0
sg8
I9050
sg9
I20582
ssg12
I0
sg13
I0
sg14
I19790
sg15
I52810
sg16
I20305
ssI4
(dp45
g4
(dp46
g6
I94073
sg7
I0
sg8
I23900
sg9
I117973
ssg10
(dp47
g6
I10236
sg7
I0
sg8
I10346
sg9
I20582
ssg12
I0
sg13
I0
sg14
I19809
sg15
I52604
sg16
I20325
ssI8
(dp48
g4
(dp49
g6
I91952
sg7
I0
sg8
I26021
sg9
I117973
ssg10
(dp50
g6
I9246
sg7
I0
sg8
I11336
sg9
I20582
ssg12
I0
sg13
I0
sg14
I19673
sg15
I52373
sg16
I20303
ssI16
(dp51
g4
(dp52
g6
I90972
sg7
I0
sg8
I27001
sg9
I117973
ssg10
(dp53
g6
I8177
sg7
I0
sg8
I12405
sg9
I20582
ssg12
I0
sg13
I0
sg14
I19717
sg15
I52271
sg16
I20325
sss.