(dp0
S'MSICache'
p1
(dp2
I2
(dp3
S'R'
p4
(dp5
S'HIT'
p6
I34940
sS'MISS'
p7
I6020
sS'TOTAL'
p8
I40960
ssS'W'
p9
(dp10
g6
I8192
sg7
I0
sg8
I8192
ssS'INVALIDATES'
p11
I8192
sS'INVALIDATED'
p12
I6927
sS'WRITEUPDATES'
p13
I0
sS'WRITEUPDATED'
p14
I0
sS'WRITEBACK'
p15
I4196
ssI4
(dp16
g4
(dp17
g6
I37348
sg7
I3612
sg8
I40960
ssg9
(dp18
g6
I8192
sg7
I0
sg8
I8192
ssg11
I8192
sg12
I4253
sg13
I0
sg14
I0
sg15
I2609
ssI8
(dp19
g4
(dp20
g6
I38552
sg7
I2408
sg8
I40960
ssg9
(dp21
g6
I8192
sg7
I0
sg8
I8192
ssg11
I8192
sg12
I3014
sg13
I0
sg14
I0
sg15
I1915
ssI16
(dp22
g4
(dp23
g6
I39756
sg7
I1204
sg8
I40960
ssg9
(dp24
g6
I8192
sg7
I0
sg8
I8192
ssg11
I8192
sg12
I1795
sg13
I0
sg14
I0
sg15
I1234
sssS'MESICache'
p25
(dp26
I2
(dp27
g4
(dp28
g6
I34940
sg7
I6020
sg8
I40960
ssg9
(dp29
g6
I8192
sg7
I0
sg8
I8192
ssg11
I8192
sg12
I6927
sg13
I0
sg14
I0
sg15
I3443
ssI4
(dp30
g4
(dp31
g6
I37348
sg7
I3612
sg8
I40960
ssg9
(dp32
g6
I8192
sg7
I0
sg8
I8192
ssg11
I8192
sg12
I4253
sg13
I0
sg14
I0
sg15
I2145
ssI8
(dp33
g4
(dp34
g6
I38552
sg7
I2408
sg8
I40960
ssg9
(dp35
g6
I8192
sg7
I0
sg8
I8192
ssg11
I8192
sg12
I3014
sg13
I0
sg14
I0
sg15
I1589
ssI16
(dp36
g4
(dp37
g6
I39756
sg7
I1204
sg8
I40960
ssg9
(dp38
g6
I8192
sg7
I0
sg8
I8192
ssg11
I8192
sg12
I1795
sg13
I0
sg14
I0
sg15
I1045
sssS'MESCache'
p39
(dp40
I2
(dp41
g4
(dp42
g6
I34285
sg7
I6675
sg8
I40960
ssg9
(dp43
g6
I8192
sg7
I0
sg8
I8192
ssg11
I0
sg12
I0
sg13
I5510
sg14
I11084
sg15
I6862
ssI4
(dp44
g4
(dp45
g6
I36879
sg7
I4081
sg8
I40960
ssg9
(dp46
g6
I8192
sg7
I0
sg8
I8192
ssg11
I0
sg12
I0
sg13
I5606
sg14
I11407
sg15
I6416
ssI8
(dp47
g4
(dp48
g6
I38079
sg7
I2881
sg8
I40960
ssg9
(dp49
g6
I8192
sg7
I0
sg8
I8192
ssg11
I0
sg12
I0
sg13
I5848
sg14
I12088
sg15
I6390
ssI16
(dp50
g4
(dp51
g6
I39256
sg7
I1704
sg8
I40960
ssg9
(dp52
g6
I8192
sg7
I0
sg8
I8192
ssg11
I0
sg12
I0
sg13
I6076
sg14
I12783
sg15
I6343
sss.